; ModuleID = '11/817.c'
source_filename = "11/817.c"
target datalayout = "e-m:e-p270:32:32-p271:32:32-p272:64:64-i64:64-f80:128-n8:16:32:64-S128"
target triple = "x86_64-pc-linux-gnu"

@.str = private unnamed_addr constant [9 x i8] c"%d %d %d\00", align 1
@__const.main.a = private unnamed_addr constant [12 x i32] [i32 31, i32 29, i32 31, i32 30, i32 31, i32 30, i32 31, i32 31, i32 30, i32 31, i32 30, i32 31], align 16
@.str.1 = private unnamed_addr constant [4 x i8] c"%d\0A\00", align 1
@__const.main.a.2 = private unnamed_addr constant [12 x i32] [i32 31, i32 28, i32 31, i32 30, i32 31, i32 30, i32 31, i32 31, i32 30, i32 31, i32 30, i32 31], align 16

; Function Attrs: noinline nounwind uwtable
define dso_local i32 @leapyear(i32 %0) #0 {
  %2 = alloca i32, align 4
  %3 = alloca i32, align 4
  store i32 %0, i32* %3, align 4
  %4 = load i32, i32* %3, align 4
  %5 = srem i32 %4, 4
  %6 = icmp eq i32 %5, 0
  br i1 %6, label %7, label %11

7:                                                ; preds = %1
  %8 = load i32, i32* %3, align 4
  %9 = srem i32 %8, 100
  %10 = icmp ne i32 %9, 0
  br i1 %10, label %15, label %11

11:                                               ; preds = %7, %1
  %12 = load i32, i32* %3, align 4
  %13 = srem i32 %12, 400
  %14 = icmp eq i32 %13, 0
  br i1 %14, label %15, label %16

15:                                               ; preds = %11, %7
  store i32 1, i32* %2, align 4
  br label %17

16:                                               ; preds = %11
  store i32 0, i32* %2, align 4
  br label %17

17:                                               ; preds = %16, %15
  %18 = load i32, i32* %2, align 4
  ret i32 %18
}

; Function Attrs: noinline nounwind uwtable
define dso_local i32 @main() #0 {
  %1 = alloca i32, align 4
  %2 = alloca [12 x i32], align 16
  %3 = alloca i32, align 4
  %4 = alloca i32, align 4
  %5 = alloca i32, align 4
  %6 = alloca i32, align 4
  %7 = alloca i32, align 4
  %8 = alloca [12 x i32], align 16
  %9 = alloca [12 x i32], align 16
  store i32 0, i32* %1, align 4
  store i32 0, i32* %7, align 4
  %10 = call i32 (i8*, ...) @__isoc99_scanf(i8* getelementptr inbounds ([9 x i8], [9 x i8]* @.str, i64 0, i64 0), i32* %4, i32* %5, i32* %6)
  %11 = load i32, i32* %4, align 4
  %12 = call i32 @leapyear(i32 %11)
  %13 = icmp eq i32 %12, 1
  br i1 %13, label %14, label %37

14:                                               ; preds = %0
  %15 = bitcast [12 x i32]* %8 to i8*
  call void @llvm.memcpy.p0i8.p0i8.i64(i8* align 16 %15, i8* align 16 bitcast ([12 x i32]* @__const.main.a to i8*), i64 48, i1 false)
  store i32 0, i32* %3, align 4
  br label %16

16:                                               ; preds = %28, %14
  %17 = load i32, i32* %3, align 4
  %18 = load i32, i32* %5, align 4
  %19 = sub nsw i32 %18, 1
  %20 = icmp slt i32 %17, %19
  br i1 %20, label %21, label %31

21:                                               ; preds = %16
  %22 = load i32, i32* %7, align 4
  %23 = load i32, i32* %3, align 4
  %24 = sext i32 %23 to i64
  %25 = getelementptr inbounds [12 x i32], [12 x i32]* %8, i64 0, i64 %24
  %26 = load i32, i32* %25, align 4
  %27 = add nsw i32 %22, %26
  store i32 %27, i32* %7, align 4
  br label %28

28:                                               ; preds = %21
  %29 = load i32, i32* %3, align 4
  %30 = add nsw i32 %29, 1
  store i32 %30, i32* %3, align 4
  br label %16

31:                                               ; preds = %16
  %32 = load i32, i32* %7, align 4
  %33 = load i32, i32* %6, align 4
  %34 = add nsw i32 %32, %33
  store i32 %34, i32* %7, align 4
  %35 = load i32, i32* %7, align 4
  %36 = call i32 (i8*, ...) @printf(i8* getelementptr inbounds ([4 x i8], [4 x i8]* @.str.1, i64 0, i64 0), i32 %35)
  br label %65

37:                                               ; preds = %0
  %38 = load i32, i32* %4, align 4
  %39 = call i32 @leapyear(i32 %38)
  %40 = icmp eq i32 %39, 0
  br i1 %40, label %41, label %64

41:                                               ; preds = %37
  %42 = bitcast [12 x i32]* %9 to i8*
  call void @llvm.memcpy.p0i8.p0i8.i64(i8* align 16 %42, i8* align 16 bitcast ([12 x i32]* @__const.main.a.2 to i8*), i64 48, i1 false)
  store i32 0, i32* %3, align 4
  br label %43

43:                                               ; preds = %55, %41
  %44 = load i32, i32* %3, align 4
  %45 = load i32, i32* %5, align 4
  %46 = sub nsw i32 %45, 1
  %47 = icmp slt i32 %44, %46
  br i1 %47, label %48, label %58

48:                                               ; preds = %43
  %49 = load i32, i32* %7, align 4
  %50 = load i32, i32* %3, align 4
  %51 = sext i32 %50 to i64
  %52 = getelementptr inbounds [12 x i32], [12 x i32]* %9, i64 0, i64 %51
  %53 = load i32, i32* %52, align 4
  %54 = add nsw i32 %49, %53
  store i32 %54, i32* %7, align 4
  br label %55

55:                                               ; preds = %48
  %56 = load i32, i32* %3, align 4
  %57 = add nsw i32 %56, 1
  store i32 %57, i32* %3, align 4
  br label %43

58:                                               ; preds = %43
  %59 = load i32, i32* %7, align 4
  %60 = load i32, i32* %6, align 4
  %61 = add nsw i32 %59, %60
  store i32 %61, i32* %7, align 4
  %62 = load i32, i32* %7, align 4
  %63 = call i32 (i8*, ...) @printf(i8* getelementptr inbounds ([4 x i8], [4 x i8]* @.str.1, i64 0, i64 0), i32 %62)
  br label %64

64:                                               ; preds = %58, %37
  br label %65

65:                                               ; preds = %64, %31
  %66 = load i32, i32* %1, align 4
  ret i32 %66
}

declare dso_local i32 @__isoc99_scanf(i8*, ...) #1

; Function Attrs: argmemonly nounwind willreturn
declare void @llvm.memcpy.p0i8.p0i8.i64(i8* noalias nocapture writeonly, i8* noalias nocapture readonly, i64, i1 immarg) #2

declare dso_local i32 @printf(i8*, ...) #1


!llvm.module.flags = !{!0}
!llvm.ident = !{!1}

!0 = !{i32 1, !"wchar_size", i32 4}
!1 = !{!"clang version 10.0.0-4ubuntu1 "}
